(dp0
S'a'
p1
(lp2
F1398349548.2907071
aF1398349549.259831
aF1398349549.7865419
aF1398349550.347616
aF1398349550.914556
aF1398349551.4188001
aF1398349551.9305401
aF1398349553.9707291
aF1398349554.5065751
aF1398349555.2586739
as.