(dp0
S'generation'
p1
I48
sS'population'
p2
(lp3
ccopy_reg
_reconstructor
p4
(c__main__
Robot
p5
c__builtin__
object
p6
Ntp7
Rp8
(dp9
S'bits_per_gene'
p10
I9
sS'length'
p11
I54
sS'genes'
p12
(dp13
S'lua'
p14
(F-0.6283185307179586
F0.6283185307179586
tp15
sS'll'
p16
(F30.0
F80.0
tp17
sS'rua'
p18
(F-0.6283185307179586
F0.6283185307179586
tp19
sS'rla'
p20
(F0.0
F1.0471975511965976
tp21
sS'ul'
p22
(F30.0
F80.0
tp23
sS'lla'
p24
(F0.0
F1.0471975511965976
tp25
ssS'score'
p26
F628.6555089366741
sS'chromosome'
p27
(lp28
I0
aI1
aI0
aI1
aI1
aI0
aI00
aI0
aI00
aI1
aI1
aI1
aI01
aI1
aI1
aI01
aI1
aI01
aI0
aI0
aI0
aI00
aI0
aI1
aI00
aI0
aI1
aI1
aI1
aI0
aI0
aI0
aI1
aI0
aI1
aI1
aI0
aI1
aI1
aI1
aI1
aI01
aI1
aI0
aI1
aI0
aI00
aI01
aI1
aI1
aI0
aI01
aI01
aI00
asbag4
(g5
g6
Ntp29
Rp30
(dp31
g10
I9
sg11
I54
sg12
(dp32
g14
(F-0.6283185307179586
F0.6283185307179586
tp33
sg16
g17
sg18
(F-0.6283185307179586
F0.6283185307179586
tp34
sg20
(F0.0
F1.0471975511965976
tp35
sg22
g23
sg24
(F0.0
F1.0471975511965976
tp36
ssg26
F628.6555089366741
sg27
(lp37
I0
aI1
aI0
aI1
aI1
aI0
aI00
aI0
aI00
aI1
aI1
aI1
aI01
aI1
aI1
aI01
aI1
aI01
aI0
aI0
aI0
aI00
aI0
aI1
aI00
aI0
aI1
aI1
aI1
aI0
aI0
aI0
aI1
aI0
aI1
aI1
aI0
aI1
aI1
aI1
aI1
aI01
aI1
aI0
aI1
aI0
aI00
aI01
aI1
aI1
aI0
aI01
aI01
aI00
asbag4
(g5
g6
Ntp38
Rp39
(dp40
g10
I9
sg11
I54
sg12
(dp41
g14
(F-0.6283185307179586
F0.6283185307179586
tp42
sg16
g17
sg18
(F-0.6283185307179586
F0.6283185307179586
tp43
sg20
(F0.0
F1.0471975511965976
tp44
sg22
g23
sg24
(F0.0
F1.0471975511965976
tp45
ssg26
F648.7846515635375
sg27
(lp46
I0
aI1
aI0
aI1
aI1
aI0
aI00
aI0
aI00
aI1
aI1
aI1
aI01
aI1
aI1
aI01
aI1
aI01
aI0
aI0
aI0
aI00
aI0
aI1
aI00
aI01
aI1
aI1
aI1
aI0
aI0
aI0
aI1
aI0
aI1
aI1
aI0
aI1
aI1
aI1
aI1
aI01
aI1
aI0
aI1
aI0
aI00
aI01
aI1
aI1
aI0
aI01
aI01
aI00
asbag4
(g5
g6
Ntp47
Rp48
(dp49
g10
I9
sg11
I54
sg12
(dp50
g14
(F-0.6283185307179586
F0.6283185307179586
tp51
sg16
g17
sg18
(F-0.6283185307179586
F0.6283185307179586
tp52
sg20
(F0.0
F1.0471975511965976
tp53
sg22
g23
sg24
(F0.0
F1.0471975511965976
tp54
ssg26
F853.0153322352003
sg27
(lp55
I0
aI1
aI0
aI1
aI1
aI0
aI00
aI0
aI00
aI1
aI1
aI1
aI01
aI1
aI1
aI01
aI1
aI01
aI0
aI0
aI0
aI00
aI0
aI1
aI00
aI0
aI1
aI1
aI1
aI0
aI0
aI01
aI1
aI01
aI1
aI1
aI0
aI1
aI1
aI1
aI1
aI01
aI1
aI0
aI1
aI0
aI00
aI01
aI1
aI1
aI0
aI01
aI01
aI00
asbag4
(g5
g6
Ntp56
Rp57
(dp58
g10
I9
sg11
I54
sg12
(dp59
g14
(F-0.6283185307179586
F0.6283185307179586
tp60
sg16
g17
sg18
(F-0.6283185307179586
F0.6283185307179586
tp61
sg20
(F0.0
F1.0471975511965976
tp62
sg22
g23
sg24
(F0.0
F1.0471975511965976
tp63
ssg26
F648.7846515635375
sg27
(lp64
I0
aI1
aI0
aI1
aI1
aI0
aI00
aI0
aI00
aI1
aI1
aI1
aI01
aI1
aI1
aI01
aI1
aI01
aI0
aI0
aI0
aI00
aI0
aI1
aI00
aI01
aI1
aI1
aI1
aI0
aI0
aI0
aI1
aI0
aI1
aI1
aI0
aI1
aI1
aI1
aI1
aI01
aI1
aI0
aI1
aI0
aI00
aI01
aI1
aI1
aI0
aI01
aI01
aI00
asbag4
(g5
g6
Ntp65
Rp66
(dp67
g10
I9
sg11
I54
sg12
(dp68
g14
(F-0.6283185307179586
F0.6283185307179586
tp69
sg16
g17
sg18
(F-0.6283185307179586
F0.6283185307179586
tp70
sg20
(F0.0
F1.0471975511965976
tp71
sg22
g23
sg24
(F0.0
F1.0471975511965976
tp72
ssg26
F1118.973860348694
sg27
(lp73
I0
aI1
aI0
aI1
aI1
aI0
aI00
aI0
aI00
aI1
aI1
aI1
aI01
aI1
aI1
aI01
aI1
aI01
aI0
aI0
aI0
aI00
aI0
aI1
aI00
aI0
aI1
aI1
aI1
aI0
aI0
aI0
aI1
aI0
aI1
aI1
aI01
aI1
aI1
aI1
aI1
aI01
aI1
aI0
aI1
aI0
aI00
aI01
aI1
aI1
aI0
aI01
aI01
aI00
asbag4
(g5
g6
Ntp74
Rp75
(dp76
g10
I9
sg11
I54
sg12
(dp77
g14
(F-0.6283185307179586
F0.6283185307179586
tp78
sg16
g17
sg18
(F-0.6283185307179586
F0.6283185307179586
tp79
sg20
(F0.0
F1.0471975511965976
tp80
sg22
g23
sg24
(F0.0
F1.0471975511965976
tp81
ssg26
F700.5063675105985
sg27
(lp82
I0
aI1
aI0
aI1
aI1
aI0
aI00
aI0
aI00
aI1
aI1
aI1
aI01
aI1
aI00
aI01
aI1
aI01
aI0
aI0
aI0
aI00
aI0
aI1
aI00
aI0
aI1
aI1
aI1
aI0
aI0
aI0
aI1
aI0
aI1
aI1
aI0
aI1
aI1
aI1
aI1
aI01
aI1
aI0
aI1
aI0
aI00
aI01
aI1
aI1
aI0
aI01
aI01
aI00
asbag4
(g5
g6
Ntp83
Rp84
(dp85
g10
I9
sg11
I54
sg12
(dp86
g14
(F-0.6283185307179586
F0.6283185307179586
tp87
sg16
g17
sg18
(F-0.6283185307179586
F0.6283185307179586
tp88
sg20
(F0.0
F1.0471975511965976
tp89
sg22
g23
sg24
(F0.0
F1.0471975511965976
tp90
ssg26
F628.6555089366741
sg27
(lp91
I0
aI1
aI0
aI1
aI1
aI0
aI00
aI0
aI00
aI1
aI1
aI1
aI01
aI1
aI1
aI01
aI1
aI01
aI0
aI0
aI0
aI00
aI0
aI1
aI00
aI0
aI1
aI1
aI1
aI0
aI0
aI0
aI1
aI0
aI1
aI1
aI0
aI1
aI1
aI1
aI1
aI01
aI1
aI0
aI1
aI0
aI00
aI01
aI1
aI1
aI0
aI01
aI01
aI00
asbag4
(g5
g6
Ntp92
Rp93
(dp94
g10
I9
sg11
I54
sg12
(dp95
g14
(F-0.6283185307179586
F0.6283185307179586
tp96
sg16
g17
sg18
(F-0.6283185307179586
F0.6283185307179586
tp97
sg20
(F0.0
F1.0471975511965976
tp98
sg22
g23
sg24
(F0.0
F1.0471975511965976
tp99
ssg26
F628.6555089366741
sg27
(lp100
I0
aI1
aI0
aI1
aI1
aI0
aI00
aI0
aI00
aI1
aI1
aI1
aI01
aI1
aI1
aI01
aI1
aI01
aI0
aI0
aI0
aI00
aI0
aI1
aI00
aI0
aI1
aI1
aI1
aI0
aI0
aI0
aI1
aI0
aI1
aI1
aI0
aI1
aI1
aI1
aI1
aI01
aI1
aI0
aI1
aI0
aI00
aI01
aI1
aI1
aI0
aI01
aI01
aI00
asbag4
(g5
g6
Ntp101
Rp102
(dp103
g10
I9
sg11
I54
sg12
(dp104
g14
(F-0.6283185307179586
F0.6283185307179586
tp105
sg16
g17
sg18
(F-0.6283185307179586
F0.6283185307179586
tp106
sg20
(F0.0
F1.0471975511965976
tp107
sg22
g23
sg24
(F0.0
F1.0471975511965976
tp108
ssg26
F868.5118234544941
sg27
(lp109
I01
aI1
aI0
aI1
aI1
aI0
aI00
aI0
aI00
aI1
aI1
aI1
aI01
aI1
aI1
aI01
aI1
aI01
aI0
aI0
aI01
aI00
aI0
aI1
aI00
aI0
aI1
aI1
aI1
aI0
aI0
aI0
aI1
aI0
aI1
aI1
aI0
aI1
aI1
aI1
aI1
aI01
aI1
aI0
aI1
aI0
aI00
aI01
aI1
aI1
aI0
aI01
aI01
aI00
asbag4
(g5
g6
Ntp110
Rp111
(dp112
g10
I9
sg11
I54
sg12
(dp113
g14
(F-0.6283185307179586
F0.6283185307179586
tp114
sg16
g17
sg18
(F-0.6283185307179586
F0.6283185307179586
tp115
sg20
(F0.0
F1.0471975511965976
tp116
sg22
g23
sg24
(F0.0
F1.0471975511965976
tp117
ssg26
F628.6555089366741
sg27
(lp118
I0
aI1
aI0
aI1
aI1
aI0
aI00
aI0
aI00
aI1
aI1
aI1
aI01
aI1
aI1
aI01
aI1
aI01
aI0
aI0
aI0
aI00
aI0
aI1
aI00
aI0
aI1
aI1
aI1
aI0
aI0
aI0
aI1
aI0
aI1
aI1
aI0
aI1
aI1
aI1
aI1
aI01
aI1
aI0
aI1
aI0
aI00
aI01
aI1
aI1
aI0
aI01
aI01
aI00
asbag4
(g5
g6
Ntp119
Rp120
(dp121
g10
I9
sg11
I54
sg12
(dp122
g14
(F-0.6283185307179586
F0.6283185307179586
tp123
sg16
g17
sg18
(F-0.6283185307179586
F0.6283185307179586
tp124
sg20
(F0.0
F1.0471975511965976
tp125
sg22
g23
sg24
(F0.0
F1.0471975511965976
tp126
ssg26
F885.7012139140811
sg27
(lp127
I0
aI1
aI0
aI1
aI1
aI0
aI00
aI0
aI00
aI1
aI1
aI1
aI01
aI1
aI1
aI01
aI1
aI01
aI0
aI0
aI0
aI00
aI0
aI1
aI00
aI0
aI1
aI1
aI1
aI0
aI01
aI0
aI1
aI0
aI1
aI00
aI0
aI1
aI1
aI1
aI1
aI01
aI1
aI0
aI1
aI0
aI00
aI01
aI1
aI1
aI0
aI01
aI01
aI00
asbag4
(g5
g6
Ntp128
Rp129
(dp130
g10
I9
sg11
I54
sg12
(dp131
g14
(F-0.6283185307179586
F0.6283185307179586
tp132
sg16
g17
sg18
(F-0.6283185307179586
F0.6283185307179586
tp133
sg20
(F0.0
F1.0471975511965976
tp134
sg22
g23
sg24
(F0.0
F1.0471975511965976
tp135
ssg26
F628.6555089366741
sg27
(lp136
I0
aI1
aI0
aI1
aI1
aI0
aI00
aI0
aI00
aI1
aI1
aI1
aI01
aI1
aI1
aI01
aI1
aI01
aI0
aI0
aI0
aI00
aI0
aI1
aI00
aI0
aI1
aI1
aI1
aI0
aI0
aI0
aI1
aI0
aI1
aI1
aI0
aI1
aI1
aI1
aI1
aI01
aI1
aI0
aI1
aI0
aI00
aI01
aI1
aI1
aI0
aI01
aI01
aI00
asbag4
(g5
g6
Ntp137
Rp138
(dp139
g10
I9
sg11
I54
sg12
(dp140
g14
(F-0.6283185307179586
F0.6283185307179586
tp141
sg16
g17
sg18
(F-0.6283185307179586
F0.6283185307179586
tp142
sg20
(F0.0
F1.0471975511965976
tp143
sg22
g23
sg24
(F0.0
F1.0471975511965976
tp144
ssg26
F628.6555089366741
sg27
(lp145
I0
aI1
aI0
aI1
aI1
aI0
aI00
aI0
aI00
aI1
aI1
aI1
aI01
aI1
aI1
aI01
aI1
aI01
aI0
aI0
aI0
aI00
aI0
aI1
aI00
aI0
aI1
aI1
aI1
aI0
aI0
aI0
aI1
aI0
aI1
aI1
aI0
aI1
aI1
aI1
aI1
aI01
aI1
aI0
aI1
aI0
aI00
aI01
aI1
aI1
aI0
aI01
aI01
aI00
asbag4
(g5
g6
Ntp146
Rp147
(dp148
g10
I9
sg11
I54
sg12
(dp149
g14
(F-0.6283185307179586
F0.6283185307179586
tp150
sg16
g17
sg18
(F-0.6283185307179586
F0.6283185307179586
tp151
sg20
(F0.0
F1.0471975511965976
tp152
sg22
g23
sg24
(F0.0
F1.0471975511965976
tp153
ssg26
F1093.3472371245707
sg27
(lp154
I0
aI1
aI0
aI1
aI1
aI0
aI00
aI0
aI00
aI1
aI1
aI1
aI01
aI1
aI1
aI01
aI1
aI01
aI0
aI0
aI0
aI00
aI0
aI1
aI00
aI0
aI1
aI00
aI1
aI0
aI0
aI0
aI1
aI0
aI1
aI1
aI0
aI1
aI1
aI1
aI1
aI01
aI1
aI0
aI1
aI0
aI00
aI01
aI1
aI1
aI0
aI01
aI01
aI00
asbag4
(g5
g6
Ntp155
Rp156
(dp157
g10
I9
sg11
I54
sg12
(dp158
g14
(F-0.6283185307179586
F0.6283185307179586
tp159
sg16
g17
sg18
(F-0.6283185307179586
F0.6283185307179586
tp160
sg20
(F0.0
F1.0471975511965976
tp161
sg22
g23
sg24
(F0.0
F1.0471975511965976
tp162
ssg26
F692.0209400775734
sg27
(lp163
I0
aI1
aI0
aI1
aI1
aI0
aI00
aI01
aI00
aI1
aI1
aI1
aI01
aI1
aI1
aI01
aI1
aI01
aI0
aI0
aI0
aI00
aI0
aI1
aI00
aI0
aI1
aI1
aI1
aI0
aI0
aI0
aI1
aI0
aI1
aI1
aI0
aI00
aI1
aI1
aI1
aI01
aI1
aI0
aI1
aI0
aI00
aI01
aI1
aI1
aI0
aI01
aI01
aI00
asbag4
(g5
g6
Ntp164
Rp165
(dp166
g10
I9
sg11
I54
sg12
(dp167
g14
(F-0.6283185307179586
F0.6283185307179586
tp168
sg16
g17
sg18
(F-0.6283185307179586
F0.6283185307179586
tp169
sg20
(F0.0
F1.0471975511965976
tp170
sg22
g23
sg24
(F0.0
F1.0471975511965976
tp171
ssg26
F628.6555089366741
sg27
(lp172
I0
aI1
aI0
aI1
aI1
aI0
aI00
aI0
aI00
aI1
aI1
aI1
aI01
aI1
aI1
aI01
aI1
aI01
aI0
aI0
aI0
aI00
aI0
aI1
aI00
aI0
aI1
aI1
aI1
aI0
aI0
aI0
aI1
aI0
aI1
aI1
aI0
aI1
aI1
aI1
aI1
aI01
aI1
aI0
aI1
aI0
aI00
aI01
aI1
aI1
aI0
aI01
aI01
aI00
asbag4
(g5
g6
Ntp173
Rp174
(dp175
g10
I9
sg11
I54
sg12
(dp176
g14
(F-0.6283185307179586
F0.6283185307179586
tp177
sg16
g17
sg18
(F-0.6283185307179586
F0.6283185307179586
tp178
sg20
(F0.0
F1.0471975511965976
tp179
sg22
g23
sg24
(F0.0
F1.0471975511965976
tp180
ssg26
F880.1015428239122
sg27
(lp181
I0
aI1
aI0
aI1
aI1
aI0
aI00
aI0
aI00
aI1
aI1
aI1
aI01
aI1
aI1
aI01
aI1
aI01
aI0
aI0
aI0
aI00
aI0
aI1
aI00
aI0
aI1
aI1
aI1
aI0
aI0
aI0
aI1
aI0
aI1
aI1
aI0
aI1
aI1
aI1
aI1
aI01
aI1
aI01
aI1
aI0
aI00
aI01
aI1
aI1
aI0
aI01
aI01
aI00
asbag4
(g5
g6
Ntp182
Rp183
(dp184
g10
I9
sg11
I54
sg12
(dp185
g14
(F-0.6283185307179586
F0.6283185307179586
tp186
sg16
g17
sg18
(F-0.6283185307179586
F0.6283185307179586
tp187
sg20
(F0.0
F1.0471975511965976
tp188
sg22
g23
sg24
(F0.0
F1.0471975511965976
tp189
ssg26
F834.5620557735735
sg27
(lp190
I0
aI1
aI0
aI1
aI1
aI01
aI00
aI0
aI00
aI1
aI1
aI1
aI01
aI1
aI1
aI01
aI1
aI01
aI0
aI0
aI0
aI00
aI0
aI1
aI00
aI0
aI1
aI1
aI1
aI0
aI0
aI0
aI1
aI0
aI1
aI1
aI0
aI1
aI1
aI1
aI1
aI01
aI00
aI0
aI1
aI0
aI00
aI01
aI1
aI1
aI0
aI01
aI01
aI00
asbag4
(g5
g6
Ntp191
Rp192
(dp193
g10
I9
sg11
I54
sg12
(dp194
g14
(F-0.6283185307179586
F0.6283185307179586
tp195
sg16
g17
sg18
(F-0.6283185307179586
F0.6283185307179586
tp196
sg20
(F0.0
F1.0471975511965976
tp197
sg22
g23
sg24
(F0.0
F1.0471975511965976
tp198
ssg26
F843.6790061384429
sg27
(lp199
I0
aI1
aI0
aI1
aI1
aI0
aI00
aI0
aI00
aI1
aI1
aI1
aI01
aI1
aI1
aI01
aI1
aI01
aI0
aI0
aI0
aI00
aI0
aI1
aI00
aI0
aI1
aI1
aI1
aI0
aI0
aI0
aI00
aI0
aI1
aI1
aI0
aI1
aI1
aI1
aI1
aI01
aI1
aI0
aI1
aI0
aI00
aI01
aI1
aI1
aI0
aI01
aI01
aI00
asbag4
(g5
g6
Ntp200
Rp201
(dp202
g10
I9
sg11
I54
sg12
(dp203
g14
(F-0.6283185307179586
F0.6283185307179586
tp204
sg16
g17
sg18
(F-0.6283185307179586
F0.6283185307179586
tp205
sg20
(F0.0
F1.0471975511965976
tp206
sg22
g23
sg24
(F0.0
F1.0471975511965976
tp207
ssg26
F817.0889043721729
sg27
(lp208
I0
aI1
aI0
aI1
aI1
aI0
aI00
aI0
aI00
aI1
aI1
aI1
aI01
aI1
aI1
aI01
aI1
aI00
aI0
aI0
aI0
aI00
aI0
aI1
aI00
aI0
aI1
aI1
aI1
aI0
aI0
aI01
aI1
aI0
aI1
aI1
aI0
aI1
aI1
aI1
aI1
aI01
aI1
aI0
aI1
aI0
aI00
aI01
aI1
aI1
aI0
aI01
aI01
aI00
asbag4
(g5
g6
Ntp209
Rp210
(dp211
g10
I9
sg11
I54
sg12
(dp212
g14
(F-0.6283185307179586
F0.6283185307179586
tp213
sg16
g17
sg18
(F-0.6283185307179586
F0.6283185307179586
tp214
sg20
(F0.0
F1.0471975511965976
tp215
sg22
g23
sg24
(F0.0
F1.0471975511965976
tp216
ssg26
F664.8337504815761
sg27
(lp217
I0
aI1
aI0
aI1
aI1
aI0
aI00
aI0
aI00
aI1
aI1
aI1
aI01
aI1
aI1
aI01
aI1
aI01
aI0
aI0
aI0
aI00
aI0
aI1
aI00
aI0
aI1
aI1
aI1
aI0
aI0
aI0
aI1
aI01
aI1
aI1
aI0
aI1
aI1
aI1
aI1
aI01
aI1
aI0
aI1
aI0
aI00
aI01
aI1
aI1
aI0
aI01
aI01
aI00
asbag4
(g5
g6
Ntp218
Rp219
(dp220
g10
I9
sg11
I54
sg12
(dp221
g14
(F-0.6283185307179586
F0.6283185307179586
tp222
sg16
g17
sg18
(F-0.6283185307179586
F0.6283185307179586
tp223
sg20
(F0.0
F1.0471975511965976
tp224
sg22
g23
sg24
(F0.0
F1.0471975511965976
tp225
ssg26
F865.8097248536923
sg27
(lp226
I0
aI1
aI0
aI1
aI1
aI0
aI00
aI0
aI00
aI1
aI1
aI1
aI01
aI1
aI1
aI01
aI1
aI01
aI0
aI0
aI0
aI00
aI0
aI1
aI00
aI0
aI1
aI1
aI1
aI0
aI01
aI0
aI1
aI0
aI1
aI1
aI0
aI1
aI1
aI1
aI1
aI01
aI1
aI0
aI1
aI0
aI00
aI01
aI1
aI1
aI0
aI01
aI01
aI00
asbag4
(g5
g6
Ntp227
Rp228
(dp229
g10
I9
sg11
I54
sg12
(dp230
g14
(F-0.6283185307179586
F0.6283185307179586
tp231
sg16
g17
sg18
(F-0.6283185307179586
F0.6283185307179586
tp232
sg20
(F0.0
F1.0471975511965976
tp233
sg22
g23
sg24
(F0.0
F1.0471975511965976
tp234
ssg26
F696.5412941127447
sg27
(lp235
I0
aI1
aI0
aI1
aI1
aI0
aI00
aI0
aI00
aI1
aI1
aI1
aI01
aI1
aI1
aI01
aI1
aI01
aI0
aI0
aI0
aI00
aI0
aI1
aI00
aI0
aI1
aI1
aI1
aI0
aI0
aI0
aI1
aI0
aI1
aI1
aI0
aI1
aI1
aI1
aI1
aI01
aI1
aI0
aI1
aI0
aI00
aI01
aI1
aI1
aI0
aI01
aI00
aI00
asbag4
(g5
g6
Ntp236
Rp237
(dp238
g10
I9
sg11
I54
sg12
(dp239
g14
(F-0.6283185307179586
F0.6283185307179586
tp240
sg16
g17
sg18
(F-0.6283185307179586
F0.6283185307179586
tp241
sg20
(F0.0
F1.0471975511965976
tp242
sg22
g23
sg24
(F0.0
F1.0471975511965976
tp243
ssg26
F843.6790061384429
sg27
(lp244
I0
aI1
aI0
aI1
aI1
aI0
aI00
aI0
aI00
aI1
aI1
aI1
aI01
aI1
aI1
aI01
aI1
aI01
aI0
aI0
aI0
aI00
aI0
aI1
aI00
aI0
aI1
aI1
aI1
aI0
aI0
aI0
aI00
aI0
aI1
aI1
aI0
aI1
aI1
aI1
aI1
aI01
aI1
aI0
aI1
aI0
aI00
aI01
aI1
aI1
aI0
aI01
aI01
aI00
asbag4
(g5
g6
Ntp245
Rp246
(dp247
g10
I9
sg11
I54
sg12
(dp248
g14
(F-0.6283185307179586
F0.6283185307179586
tp249
sg16
g17
sg18
(F-0.6283185307179586
F0.6283185307179586
tp250
sg20
(F0.0
F1.0471975511965976
tp251
sg22
g23
sg24
(F0.0
F1.0471975511965976
tp252
ssg26
F640.8148955606941
sg27
(lp253
I0
aI1
aI0
aI1
aI1
aI0
aI00
aI0
aI00
aI1
aI1
aI1
aI01
aI1
aI1
aI01
aI1
aI01
aI0
aI0
aI0
aI00
aI0
aI1
aI00
aI0
aI1
aI1
aI1
aI0
aI0
aI0
aI1
aI0
aI1
aI1
aI0
aI1
aI1
aI1
aI1
aI01
aI1
aI0
aI1
aI0
aI00
aI01
aI00
aI1
aI0
aI01
aI01
aI00
asbag4
(g5
g6
Ntp254
Rp255
(dp256
g10
I9
sg11
I54
sg12
(dp257
g14
(F-0.6283185307179586
F0.6283185307179586
tp258
sg16
g17
sg18
(F-0.6283185307179586
F0.6283185307179586
tp259
sg20
(F0.0
F1.0471975511965976
tp260
sg22
g23
sg24
(F0.0
F1.0471975511965976
tp261
ssg26
F628.6555089366741
sg27
(lp262
I0
aI1
aI0
aI1
aI1
aI0
aI00
aI0
aI00
aI1
aI1
aI1
aI01
aI1
aI1
aI01
aI1
aI01
aI0
aI0
aI0
aI00
aI0
aI1
aI00
aI0
aI1
aI1
aI1
aI0
aI0
aI0
aI1
aI0
aI1
aI1
aI0
aI1
aI1
aI1
aI1
aI01
aI1
aI0
aI1
aI0
aI00
aI01
aI1
aI1
aI0
aI01
aI01
aI00
asbag4
(g5
g6
Ntp263
Rp264
(dp265
g10
I9
sg11
I54
sg12
(dp266
g14
(F-0.6283185307179586
F0.6283185307179586
tp267
sg16
g17
sg18
(F-0.6283185307179586
F0.6283185307179586
tp268
sg20
(F0.0
F1.0471975511965976
tp269
sg22
g23
sg24
(F0.0
F1.0471975511965976
tp270
ssg26
F628.6555089366741
sg27
(lp271
I0
aI1
aI0
aI1
aI1
aI0
aI00
aI0
aI00
aI1
aI1
aI1
aI01
aI1
aI1
aI01
aI1
aI01
aI0
aI0
aI0
aI00
aI0
aI1
aI00
aI0
aI1
aI1
aI1
aI0
aI0
aI0
aI1
aI0
aI1
aI1
aI0
aI1
aI1
aI1
aI1
aI01
aI1
aI0
aI1
aI0
aI00
aI01
aI1
aI1
aI0
aI01
aI01
aI00
asbag4
(g5
g6
Ntp272
Rp273
(dp274
g10
I9
sg11
I54
sg12
(dp275
g14
(F-0.6283185307179586
F0.6283185307179586
tp276
sg16
g17
sg18
(F-0.6283185307179586
F0.6283185307179586
tp277
sg20
(F0.0
F1.0471975511965976
tp278
sg22
g23
sg24
(F0.0
F1.0471975511965976
tp279
ssg26
F709.0634899356505
sg27
(lp280
I0
aI1
aI0
aI1
aI1
aI0
aI00
aI0
aI00
aI1
aI1
aI1
aI01
aI00
aI1
aI01
aI1
aI01
aI0
aI0
aI0
aI00
aI0
aI1
aI00
aI0
aI1
aI1
aI1
aI0
aI0
aI0
aI1
aI0
aI1
aI1
aI0
aI1
aI1
aI1
aI1
aI01
aI1
aI0
aI1
aI0
aI00
aI01
aI1
aI1
aI0
aI01
aI01
aI00
asbag4
(g5
g6
Ntp281
Rp282
(dp283
g10
I9
sg11
I54
sg12
(dp284
g14
(F-0.6283185307179586
F0.6283185307179586
tp285
sg16
g17
sg18
(F-0.6283185307179586
F0.6283185307179586
tp286
sg20
(F0.0
F1.0471975511965976
tp287
sg22
g23
sg24
(F0.0
F1.0471975511965976
tp288
ssg26
F1118.973860348694
sg27
(lp289
I0
aI1
aI0
aI1
aI1
aI0
aI00
aI0
aI00
aI1
aI1
aI1
aI01
aI1
aI1
aI01
aI1
aI01
aI0
aI0
aI0
aI00
aI0
aI1
aI00
aI0
aI1
aI1
aI1
aI0
aI0
aI0
aI1
aI0
aI1
aI1
aI01
aI1
aI1
aI1
aI1
aI01
aI1
aI0
aI1
aI0
aI00
aI01
aI1
aI1
aI0
aI01
aI01
aI00
asbag4
(g5
g6
Ntp290
Rp291
(dp292
g10
I9
sg11
I54
sg12
(dp293
g14
(F-0.6283185307179586
F0.6283185307179586
tp294
sg16
g17
sg18
(F-0.6283185307179586
F0.6283185307179586
tp295
sg20
(F0.0
F1.0471975511965976
tp296
sg22
g23
sg24
(F0.0
F1.0471975511965976
tp297
ssg26
F995.3272491542386
sg27
(lp298
I0
aI1
aI0
aI1
aI1
aI0
aI01
aI0
aI00
aI1
aI1
aI1
aI01
aI1
aI1
aI01
aI1
aI01
aI0
aI0
aI0
aI00
aI0
aI1
aI00
aI0
aI1
aI1
aI1
aI0
aI0
aI0
aI1
aI0
aI1
aI1
aI0
aI1
aI1
aI1
aI1
aI01
aI1
aI0
aI1
aI0
aI00
aI01
aI1
aI1
aI0
aI01
aI01
aI00
asbag4
(g5
g6
Ntp299
Rp300
(dp301
g10
I9
sg11
I54
sg12
(dp302
g14
(F-0.6283185307179586
F0.6283185307179586
tp303
sg16
g17
sg18
(F-0.6283185307179586
F0.6283185307179586
tp304
sg20
(F0.0
F1.0471975511965976
tp305
sg22
g23
sg24
(F0.0
F1.0471975511965976
tp306
ssg26
F1046.35072959288
sg27
(lp307
I0
aI1
aI0
aI1
aI1
aI0
aI00
aI0
aI00
aI00
aI1
aI1
aI01
aI1
aI1
aI01
aI1
aI01
aI0
aI0
aI0
aI00
aI0
aI1
aI00
aI0
aI1
aI1
aI1
aI0
aI0
aI0
aI1
aI0
aI1
aI1
aI0
aI1
aI1
aI1
aI1
aI01
aI1
aI0
aI1
aI0
aI00
aI01
aI1
aI1
aI0
aI01
aI01
aI00
asbag4
(g5
g6
Ntp308
Rp309
(dp310
g10
I9
sg11
I54
sg12
(dp311
g14
(F-0.6283185307179586
F0.6283185307179586
tp312
sg16
g17
sg18
(F-0.6283185307179586
F0.6283185307179586
tp313
sg20
(F0.0
F1.0471975511965976
tp314
sg22
g23
sg24
(F0.0
F1.0471975511965976
tp315
ssg26
F692.513247721302
sg27
(lp316
I0
aI1
aI0
aI1
aI1
aI0
aI00
aI0
aI00
aI1
aI1
aI00
aI01
aI1
aI1
aI01
aI1
aI01
aI0
aI0
aI0
aI00
aI0
aI1
aI00
aI0
aI1
aI1
aI1
aI0
aI0
aI0
aI1
aI0
aI1
aI1
aI0
aI1
aI1
aI1
aI1
aI01
aI1
aI0
aI1
aI0
aI00
aI01
aI1
aI1
aI0
aI01
aI01
aI00
asbag4
(g5
g6
Ntp317
Rp318
(dp319
g10
I9
sg11
I54
sg12
(dp320
g14
(F-0.6283185307179586
F0.6283185307179586
tp321
sg16
g17
sg18
(F-0.6283185307179586
F0.6283185307179586
tp322
sg20
(F0.0
F1.0471975511965976
tp323
sg22
g23
sg24
(F0.0
F1.0471975511965976
tp324
ssg26
F911.1422688282171
sg27
(lp325
I0
aI1
aI0
aI1
aI00
aI0
aI00
aI0
aI00
aI1
aI1
aI1
aI01
aI1
aI1
aI01
aI1
aI01
aI0
aI0
aI0
aI00
aI0
aI1
aI00
aI0
aI1
aI1
aI1
aI0
aI0
aI0
aI1
aI0
aI1
aI1
aI0
aI1
aI1
aI1
aI1
aI01
aI1
aI0
aI1
aI0
aI00
aI01
aI1
aI1
aI0
aI01
aI01
aI00
asbag4
(g5
g6
Ntp326
Rp327
(dp328
g10
I9
sg11
I54
sg12
(dp329
g14
(F-0.6283185307179586
F0.6283185307179586
tp330
sg16
g17
sg18
(F-0.6283185307179586
F0.6283185307179586
tp331
sg20
(F0.0
F1.0471975511965976
tp332
sg22
g23
sg24
(F0.0
F1.0471975511965976
tp333
ssg26
F1123.5717346089427
sg27
(lp334
I0
aI1
aI0
aI00
aI1
aI0
aI00
aI0
aI00
aI1
aI1
aI1
aI01
aI1
aI1
aI01
aI1
aI01
aI0
aI0
aI0
aI00
aI0
aI1
aI00
aI0
aI1
aI1
aI1
aI0
aI0
aI0
aI1
aI0
aI1
aI1
aI0
aI1
aI1
aI1
aI1
aI01
aI1
aI0
aI1
aI0
aI00
aI01
aI1
aI1
aI0
aI01
aI01
aI00
asbag4
(g5
g6
Ntp335
Rp336
(dp337
g10
I9
sg11
I54
sg12
(dp338
g14
(F-0.6283185307179586
F0.6283185307179586
tp339
sg16
g17
sg18
(F-0.6283185307179586
F0.6283185307179586
tp340
sg20
(F0.0
F1.0471975511965976
tp341
sg22
g23
sg24
(F0.0
F1.0471975511965976
tp342
ssg26
F628.6555089366741
sg27
(lp343
I0
aI1
aI0
aI1
aI1
aI0
aI00
aI0
aI00
aI1
aI1
aI1
aI01
aI1
aI1
aI01
aI1
aI01
aI0
aI0
aI0
aI00
aI0
aI1
aI00
aI0
aI1
aI1
aI1
aI0
aI0
aI0
aI1
aI0
aI1
aI1
aI0
aI1
aI1
aI1
aI1
aI01
aI1
aI0
aI1
aI0
aI00
aI01
aI1
aI1
aI0
aI01
aI01
aI00
asbag4
(g5
g6
Ntp344
Rp345
(dp346
g10
I9
sg11
I54
sg12
(dp347
g14
(F-0.6283185307179586
F0.6283185307179586
tp348
sg16
g17
sg18
(F-0.6283185307179586
F0.6283185307179586
tp349
sg20
(F0.0
F1.0471975511965976
tp350
sg22
g23
sg24
(F0.0
F1.0471975511965976
tp351
ssg26
F686.2986159995748
sg27
(lp352
I0
aI1
aI0
aI1
aI1
aI0
aI00
aI0
aI00
aI1
aI1
aI1
aI01
aI1
aI1
aI01
aI1
aI01
aI0
aI0
aI0
aI00
aI01
aI1
aI00
aI0
aI1
aI1
aI1
aI0
aI0
aI0
aI1
aI0
aI1
aI1
aI0
aI1
aI1
aI1
aI1
aI01
aI1
aI0
aI1
aI0
aI00
aI01
aI1
aI1
aI0
aI01
aI01
aI00
asbag4
(g5
g6
Ntp353
Rp354
(dp355
g10
I9
sg11
I54
sg12
(dp356
g14
(F-0.6283185307179586
F0.6283185307179586
tp357
sg16
g17
sg18
(F-0.6283185307179586
F0.6283185307179586
tp358
sg20
(F0.0
F1.0471975511965976
tp359
sg22
g23
sg24
(F0.0
F1.0471975511965976
tp360
ssg26
F1093.3472371245707
sg27
(lp361
I0
aI1
aI0
aI1
aI1
aI0
aI00
aI0
aI00
aI1
aI1
aI1
aI01
aI1
aI1
aI01
aI1
aI01
aI0
aI0
aI0
aI00
aI0
aI1
aI00
aI0
aI1
aI00
aI1
aI0
aI0
aI0
aI1
aI0
aI1
aI1
aI0
aI1
aI1
aI1
aI1
aI01
aI1
aI0
aI1
aI0
aI00
aI01
aI1
aI1
aI0
aI01
aI01
aI00
asbag4
(g5
g6
Ntp362
Rp363
(dp364
g10
I9
sg11
I54
sg12
(dp365
g14
(F-0.6283185307179586
F0.6283185307179586
tp366
sg16
g17
sg18
(F-0.6283185307179586
F0.6283185307179586
tp367
sg20
(F0.0
F1.0471975511965976
tp368
sg22
g23
sg24
(F0.0
F1.0471975511965976
tp369
ssg26
F959.3525651021896
sg27
(lp370
I0
aI1
aI0
aI1
aI1
aI0
aI00
aI0
aI00
aI1
aI1
aI1
aI01
aI1
aI1
aI01
aI1
aI01
aI0
aI0
aI0
aI00
aI0
aI1
aI00
aI0
aI1
aI1
aI1
aI0
aI0
aI0
aI1
aI0
aI1
aI1
aI0
aI1
aI1
aI1
aI1
aI01
aI1
aI0
aI1
aI0
aI01
aI01
aI1
aI1
aI0
aI01
aI01
aI00
asbag4
(g5
g6
Ntp371
Rp372
(dp373
g10
I9
sg11
I54
sg12
(dp374
g14
(F-0.6283185307179586
F0.6283185307179586
tp375
sg16
g17
sg18
(F-0.6283185307179586
F0.6283185307179586
tp376
sg20
(F0.0
F1.0471975511965976
tp377
sg22
g23
sg24
(F0.0
F1.0471975511965976
tp378
ssg26
F628.6555089366741
sg27
(lp379
I0
aI1
aI0
aI1
aI1
aI0
aI00
aI0
aI00
aI1
aI1
aI1
aI01
aI1
aI1
aI01
aI1
aI01
aI0
aI0
aI0
aI00
aI0
aI1
aI00
aI0
aI1
aI1
aI1
aI0
aI0
aI0
aI1
aI0
aI1
aI1
aI0
aI1
aI1
aI1
aI1
aI01
aI1
aI0
aI1
aI0
aI00
aI01
aI1
aI1
aI0
aI01
aI01
aI00
asbag4
(g5
g6
Ntp380
Rp381
(dp382
g10
I9
sg11
I54
sg12
(dp383
g14
(F-0.6283185307179586
F0.6283185307179586
tp384
sg16
g17
sg18
(F-0.6283185307179586
F0.6283185307179586
tp385
sg20
(F0.0
F1.0471975511965976
tp386
sg22
g23
sg24
(F0.0
F1.0471975511965976
tp387
ssg26
F628.6555089366741
sg27
(lp388
I0
aI1
aI0
aI1
aI1
aI0
aI00
aI0
aI00
aI1
aI1
aI1
aI01
aI1
aI1
aI01
aI1
aI01
aI0
aI0
aI0
aI00
aI0
aI1
aI00
aI0
aI1
aI1
aI1
aI0
aI0
aI0
aI1
aI0
aI1
aI1
aI0
aI1
aI1
aI1
aI1
aI01
aI1
aI0
aI1
aI0
aI00
aI01
aI1
aI1
aI0
aI01
aI01
aI00
asbag4
(g5
g6
Ntp389
Rp390
(dp391
g10
I9
sg11
I54
sg12
(dp392
g14
(F-0.6283185307179586
F0.6283185307179586
tp393
sg16
g17
sg18
(F-0.6283185307179586
F0.6283185307179586
tp394
sg20
(F0.0
F1.0471975511965976
tp395
sg22
g23
sg24
(F0.0
F1.0471975511965976
tp396
ssg26
F914.0774230106065
sg27
(lp397
I0
aI1
aI0
aI1
aI1
aI0
aI00
aI0
aI00
aI1
aI1
aI1
aI01
aI1
aI1
aI01
aI1
aI01
aI0
aI0
aI01
aI00
aI0
aI1
aI00
aI0
aI1
aI1
aI1
aI0
aI0
aI0
aI1
aI0
aI1
aI1
aI0
aI1
aI00
aI1
aI1
aI01
aI1
aI0
aI1
aI0
aI00
aI01
aI1
aI1
aI0
aI01
aI01
aI00
asbag4
(g5
g6
Ntp398
Rp399
(dp400
g10
I9
sg11
I54
sg12
(dp401
g14
(F-0.6283185307179586
F0.6283185307179586
tp402
sg16
g17
sg18
(F-0.6283185307179586
F0.6283185307179586
tp403
sg20
(F0.0
F1.0471975511965976
tp404
sg22
g23
sg24
(F0.0
F1.0471975511965976
tp405
ssg26
F857.7548984078802
sg27
(lp406
I0
aI1
aI0
aI1
aI1
aI0
aI00
aI0
aI00
aI1
aI1
aI1
aI01
aI1
aI1
aI01
aI1
aI01
aI01
aI0
aI0
aI00
aI0
aI1
aI00
aI0
aI1
aI00
aI1
aI0
aI0
aI0
aI1
aI0
aI1
aI1
aI0
aI1
aI1
aI1
aI1
aI01
aI1
aI0
aI1
aI0
aI00
aI01
aI1
aI1
aI0
aI01
aI01
aI01
asbag4
(g5
g6
Ntp407
Rp408
(dp409
g10
I9
sg11
I54
sg12
(dp410
g14
(F-0.6283185307179586
F0.6283185307179586
tp411
sg16
g17
sg18
(F-0.6283185307179586
F0.6283185307179586
tp412
sg20
(F0.0
F1.0471975511965976
tp413
sg22
g23
sg24
(F0.0
F1.0471975511965976
tp414
ssg26
F1054.4585399018235
sg27
(lp415
I01
aI1
aI0
aI1
aI1
aI0
aI00
aI0
aI00
aI1
aI1
aI1
aI01
aI1
aI1
aI01
aI1
aI01
aI0
aI0
aI0
aI00
aI0
aI1
aI00
aI0
aI1
aI1
aI1
aI0
aI0
aI0
aI1
aI0
aI1
aI1
aI0
aI1
aI1
aI1
aI1
aI01
aI1
aI0
aI1
aI0
aI01
aI01
aI1
aI1
aI0
aI01
aI01
aI00
asbag4
(g5
g6
Ntp416
Rp417
(dp418
g10
I9
sg11
I54
sg12
(dp419
g14
(F-0.6283185307179586
F0.6283185307179586
tp420
sg16
g17
sg18
(F-0.6283185307179586
F0.6283185307179586
tp421
sg20
(F0.0
F1.0471975511965976
tp422
sg22
g23
sg24
(F0.0
F1.0471975511965976
tp423
ssg26
F899.4787181612215
sg27
(lp424
I0
aI1
aI0
aI1
aI1
aI0
aI00
aI0
aI00
aI1
aI1
aI1
aI01
aI1
aI1
aI01
aI1
aI00
aI0
aI0
aI0
aI01
aI0
aI1
aI00
aI0
aI1
aI1
aI1
aI0
aI0
aI0
aI1
aI0
aI1
aI1
aI0
aI1
aI1
aI1
aI1
aI01
aI1
aI0
aI1
aI0
aI00
aI01
aI1
aI1
aI0
aI01
aI01
aI00
asbag4
(g5
g6
Ntp425
Rp426
(dp427
g10
I9
sg11
I54
sg12
(dp428
g14
(F-0.6283185307179586
F0.6283185307179586
tp429
sg16
g17
sg18
(F-0.6283185307179586
F0.6283185307179586
tp430
sg20
(F0.0
F1.0471975511965976
tp431
sg22
g23
sg24
(F0.0
F1.0471975511965976
tp432
ssg26
F1083.7233317977798
sg27
(lp433
I0
aI1
aI0
aI1
aI1
aI0
aI00
aI0
aI00
aI1
aI1
aI00
aI01
aI1
aI00
aI01
aI1
aI00
aI0
aI0
aI0
aI00
aI0
aI1
aI00
aI0
aI1
aI00
aI1
aI0
aI0
aI0
aI1
aI0
aI1
aI1
aI0
aI1
aI1
aI1
aI1
aI01
aI1
aI0
aI1
aI0
aI00
aI01
aI1
aI1
aI0
aI01
aI01
aI00
asbag4
(g5
g6
Ntp434
Rp435
(dp436
g10
I9
sg11
I54
sg12
(dp437
g14
(F-0.6283185307179586
F0.6283185307179586
tp438
sg16
g17
sg18
(F-0.6283185307179586
F0.6283185307179586
tp439
sg20
(F0.0
F1.0471975511965976
tp440
sg22
g23
sg24
(F0.0
F1.0471975511965976
tp441
ssg26
F898.2679132589362
sg27
(lp442
I0
aI1
aI0
aI1
aI1
aI0
aI00
aI0
aI00
aI1
aI1
aI1
aI01
aI1
aI1
aI01
aI1
aI01
aI0
aI0
aI0
aI01
aI0
aI1
aI00
aI0
aI1
aI1
aI1
aI0
aI0
aI0
aI1
aI0
aI1
aI1
aI0
aI1
aI1
aI1
aI1
aI01
aI1
aI0
aI1
aI0
aI00
aI01
aI1
aI1
aI0
aI01
aI01
aI00
asbag4
(g5
g6
Ntp443
Rp444
(dp445
g10
I9
sg11
I54
sg12
(dp446
g14
(F-0.6283185307179586
F0.6283185307179586
tp447
sg16
g17
sg18
(F-0.6283185307179586
F0.6283185307179586
tp448
sg20
(F0.0
F1.0471975511965976
tp449
sg22
g23
sg24
(F0.0
F1.0471975511965976
tp450
ssg26
F790.3242429828497
sg27
(lp451
I0
aI1
aI0
aI1
aI1
aI0
aI00
aI0
aI00
aI1
aI1
aI1
aI01
aI1
aI1
aI01
aI1
aI00
aI0
aI0
aI0
aI00
aI0
aI1
aI00
aI0
aI1
aI1
aI1
aI0
aI0
aI0
aI1
aI0
aI1
aI1
aI0
aI00
aI1
aI1
aI1
aI01
aI1
aI0
aI1
aI0
aI00
aI01
aI1
aI1
aI0
aI01
aI01
aI00
asbag4
(g5
g6
Ntp452
Rp453
(dp454
g10
I9
sg11
I54
sg12
(dp455
g14
(F-0.6283185307179586
F0.6283185307179586
tp456
sg16
g17
sg18
(F-0.6283185307179586
F0.6283185307179586
tp457
sg20
(F0.0
F1.0471975511965976
tp458
sg22
g23
sg24
(F0.0
F1.0471975511965976
tp459
ssg26
F925.3875084199879
sg27
(lp460
I0
aI1
aI0
aI1
aI1
aI0
aI00
aI0
aI00
aI1
aI1
aI00
aI01
aI1
aI1
aI01
aI1
aI01
aI0
aI0
aI0
aI00
aI0
aI1
aI00
aI0
aI1
aI1
aI1
aI0
aI0
aI0
aI1
aI0
aI1
aI1
aI0
aI1
aI1
aI1
aI1
aI01
aI1
aI0
aI1
aI0
aI00
aI01
aI1
aI1
aI0
aI00
aI01
aI00
asbag4
(g5
g6
Ntp461
Rp462
(dp463
g10
I9
sg11
I54
sg12
(dp464
g14
(F-0.6283185307179586
F0.6283185307179586
tp465
sg16
g17
sg18
(F-0.6283185307179586
F0.6283185307179586
tp466
sg20
(F0.0
F1.0471975511965976
tp467
sg22
g23
sg24
(F0.0
F1.0471975511965976
tp468
ssg26
F664.8337504815761
sg27
(lp469
I0
aI1
aI0
aI1
aI1
aI0
aI00
aI0
aI00
aI1
aI1
aI1
aI01
aI1
aI1
aI01
aI1
aI01
aI0
aI0
aI0
aI00
aI0
aI1
aI00
aI0
aI1
aI1
aI1
aI0
aI0
aI0
aI1
aI01
aI1
aI1
aI0
aI1
aI1
aI1
aI1
aI01
aI1
aI0
aI1
aI0
aI00
aI01
aI1
aI1
aI0
aI01
aI01
aI00
asbag4
(g5
g6
Ntp470
Rp471
(dp472
g10
I9
sg11
I54
sg12
(dp473
g14
(F-0.6283185307179586
F0.6283185307179586
tp474
sg16
g17
sg18
(F-0.6283185307179586
F0.6283185307179586
tp475
sg20
(F0.0
F1.0471975511965976
tp476
sg22
g23
sg24
(F0.0
F1.0471975511965976
tp477
ssg26
F628.6555089366741
sg27
(lp478
I0
aI1
aI0
aI1
aI1
aI0
aI00
aI0
aI00
aI1
aI1
aI1
aI01
aI1
aI1
aI01
aI1
aI01
aI0
aI0
aI0
aI00
aI0
aI1
aI00
aI0
aI1
aI1
aI1
aI0
aI0
aI0
aI1
aI0
aI1
aI1
aI0
aI1
aI1
aI1
aI1
aI01
aI1
aI0
aI1
aI0
aI00
aI01
aI1
aI1
aI0
aI01
aI01
aI00
asbag4
(g5
g6
Ntp479
Rp480
(dp481
g10
I9
sg11
I54
sg12
(dp482
g14
(F-0.6283185307179586
F0.6283185307179586
tp483
sg16
g17
sg18
(F-0.6283185307179586
F0.6283185307179586
tp484
sg20
(F0.0
F1.0471975511965976
tp485
sg22
g23
sg24
(F0.0
F1.0471975511965976
tp486
ssg26
F907.3285734119868
sg27
(lp487
I0
aI1
aI0
aI1
aI1
aI0
aI00
aI0
aI00
aI1
aI1
aI1
aI01
aI1
aI1
aI01
aI1
aI01
aI0
aI0
aI0
aI00
aI0
aI1
aI00
aI0
aI1
aI1
aI1
aI0
aI0
aI0
aI1
aI0
aI00
aI1
aI0
aI1
aI1
aI1
aI1
aI01
aI1
aI0
aI1
aI01
aI00
aI01
aI1
aI1
aI0
aI01
aI01
aI00
asbag4
(g5
g6
Ntp488
Rp489
(dp490
g10
I9
sg11
I54
sg12
(dp491
g14
(F-0.6283185307179586
F0.6283185307179586
tp492
sg16
g17
sg18
(F-0.6283185307179586
F0.6283185307179586
tp493
sg20
(F0.0
F1.0471975511965976
tp494
sg22
g23
sg24
(F0.0
F1.0471975511965976
tp495
ssg26
F628.6555089366741
sg27
(lp496
I0
aI1
aI0
aI1
aI1
aI0
aI00
aI0
aI00
aI1
aI1
aI1
aI01
aI1
aI1
aI01
aI1
aI01
aI0
aI0
aI0
aI00
aI0
aI1
aI00
aI0
aI1
aI1
aI1
aI0
aI0
aI0
aI1
aI0
aI1
aI1
aI0
aI1
aI1
aI1
aI1
aI01
aI1
aI0
aI1
aI0
aI00
aI01
aI1
aI1
aI0
aI01
aI01
aI00
asbag4
(g5
g6
Ntp497
Rp498
(dp499
g10
I9
sg11
I54
sg12
(dp500
g14
(F-0.6283185307179586
F0.6283185307179586
tp501
sg16
g17
sg18
(F-0.6283185307179586
F0.6283185307179586
tp502
sg20
(F0.0
F1.0471975511965976
tp503
sg22
g23
sg24
(F0.0
F1.0471975511965976
tp504
ssg26
F628.6555089366741
sg27
(lp505
I0
aI1
aI0
aI1
aI1
aI0
aI00
aI0
aI00
aI1
aI1
aI1
aI01
aI1
aI1
aI01
aI1
aI01
aI0
aI0
aI0
aI00
aI0
aI1
aI00
aI0
aI1
aI1
aI1
aI0
aI0
aI0
aI1
aI0
aI1
aI1
aI0
aI1
aI1
aI1
aI1
aI01
aI1
aI0
aI1
aI0
aI00
aI01
aI1
aI1
aI0
aI01
aI01
aI00
asbag4
(g5
g6
Ntp506
Rp507
(dp508
g10
I9
sg11
I54
sg12
(dp509
g14
(F-0.6283185307179586
F0.6283185307179586
tp510
sg16
g17
sg18
(F-0.6283185307179586
F0.6283185307179586
tp511
sg20
(F0.0
F1.0471975511965976
tp512
sg22
g23
sg24
(F0.0
F1.0471975511965976
tp513
ssg26
F628.6555089366741
sg27
(lp514
I0
aI1
aI0
aI1
aI1
aI0
aI00
aI0
aI00
aI1
aI1
aI1
aI01
aI1
aI1
aI01
aI1
aI01
aI0
aI0
aI0
aI00
aI0
aI1
aI00
aI0
aI1
aI1
aI1
aI0
aI0
aI0
aI1
aI0
aI1
aI1
aI0
aI1
aI1
aI1
aI1
aI01
aI1
aI0
aI1
aI0
aI00
aI01
aI1
aI1
aI0
aI01
aI01
aI00
asbag4
(g5
g6
Ntp515
Rp516
(dp517
g10
I9
sg11
I54
sg12
(dp518
g14
(F-0.6283185307179586
F0.6283185307179586
tp519
sg16
g17
sg18
(F-0.6283185307179586
F0.6283185307179586
tp520
sg20
(F0.0
F1.0471975511965976
tp521
sg22
g23
sg24
(F0.0
F1.0471975511965976
tp522
ssg26
F628.6555089366741
sg27
(lp523
I0
aI1
aI0
aI1
aI1
aI0
aI00
aI0
aI00
aI1
aI1
aI1
aI01
aI1
aI1
aI01
aI1
aI01
aI0
aI0
aI0
aI00
aI0
aI1
aI00
aI0
aI1
aI1
aI1
aI0
aI0
aI0
aI1
aI0
aI1
aI1
aI0
aI1
aI1
aI1
aI1
aI01
aI1
aI0
aI1
aI0
aI00
aI01
aI1
aI1
aI0
aI01
aI01
aI00
asbag4
(g5
g6
Ntp524
Rp525
(dp526
g10
I9
sg11
I54
sg12
(dp527
g14
(F-0.6283185307179586
F0.6283185307179586
tp528
sg16
g17
sg18
(F-0.6283185307179586
F0.6283185307179586
tp529
sg20
(F0.0
F1.0471975511965976
tp530
sg22
g23
sg24
(F0.0
F1.0471975511965976
tp531
ssg26
F628.6555089366741
sg27
(lp532
I0
aI1
aI0
aI1
aI1
aI0
aI00
aI0
aI00
aI1
aI1
aI1
aI01
aI1
aI1
aI01
aI1
aI01
aI0
aI0
aI0
aI00
aI0
aI1
aI00
aI0
aI1
aI1
aI1
aI0
aI0
aI0
aI1
aI0
aI1
aI1
aI0
aI1
aI1
aI1
aI1
aI01
aI1
aI0
aI1
aI0
aI00
aI01
aI1
aI1
aI0
aI01
aI01
aI00
asbag4
(g5
g6
Ntp533
Rp534
(dp535
g10
I9
sg11
I54
sg12
(dp536
g14
(F-0.6283185307179586
F0.6283185307179586
tp537
sg16
g17
sg18
(F-0.6283185307179586
F0.6283185307179586
tp538
sg20
(F0.0
F1.0471975511965976
tp539
sg22
g23
sg24
(F0.0
F1.0471975511965976
tp540
ssg26
F843.6790061384429
sg27
(lp541
I0
aI1
aI0
aI1
aI1
aI0
aI00
aI0
aI00
aI1
aI1
aI1
aI01
aI1
aI1
aI01
aI1
aI01
aI0
aI0
aI0
aI00
aI0
aI1
aI00
aI0
aI1
aI1
aI1
aI0
aI0
aI0
aI00
aI0
aI1
aI1
aI0
aI1
aI1
aI1
aI1
aI01
aI1
aI0
aI1
aI0
aI00
aI01
aI1
aI1
aI0
aI01
aI01
aI00
asbag4
(g5
g6
Ntp542
Rp543
(dp544
g10
I9
sg11
I54
sg12
(dp545
g14
(F-0.6283185307179586
F0.6283185307179586
tp546
sg16
g17
sg18
(F-0.6283185307179586
F0.6283185307179586
tp547
sg20
(F0.0
F1.0471975511965976
tp548
sg22
g23
sg24
(F0.0
F1.0471975511965976
tp549
ssg26
F628.6555089366741
sg27
(lp550
I0
aI1
aI0
aI1
aI1
aI0
aI00
aI0
aI00
aI1
aI1
aI1
aI01
aI1
aI1
aI01
aI1
aI01
aI0
aI0
aI0
aI00
aI0
aI1
aI00
aI0
aI1
aI1
aI1
aI0
aI0
aI0
aI1
aI0
aI1
aI1
aI0
aI1
aI1
aI1
aI1
aI01
aI1
aI0
aI1
aI0
aI00
aI01
aI1
aI1
aI0
aI01
aI01
aI00
asbag4
(g5
g6
Ntp551
Rp552
(dp553
g10
I9
sg11
I54
sg12
(dp554
g14
(F-0.6283185307179586
F0.6283185307179586
tp555
sg16
g17
sg18
(F-0.6283185307179586
F0.6283185307179586
tp556
sg20
(F0.0
F1.0471975511965976
tp557
sg22
g23
sg24
(F0.0
F1.0471975511965976
tp558
ssg26
F628.6555089366741
sg27
(lp559
I0
aI1
aI0
aI1
aI1
aI0
aI00
aI0
aI00
aI1
aI1
aI1
aI01
aI1
aI1
aI01
aI1
aI01
aI0
aI0
aI0
aI00
aI0
aI1
aI00
aI0
aI1
aI1
aI1
aI0
aI0
aI0
aI1
aI0
aI1
aI1
aI0
aI1
aI1
aI1
aI1
aI01
aI1
aI0
aI1
aI0
aI00
aI01
aI1
aI1
aI0
aI01
aI01
aI00
asbag4
(g5
g6
Ntp560
Rp561
(dp562
g10
I9
sg11
I54
sg12
(dp563
g14
(F-0.6283185307179586
F0.6283185307179586
tp564
sg16
g17
sg18
(F-0.6283185307179586
F0.6283185307179586
tp565
sg20
(F0.0
F1.0471975511965976
tp566
sg22
g23
sg24
(F0.0
F1.0471975511965976
tp567
ssg26
F628.6555089366741
sg27
(lp568
I0
aI1
aI0
aI1
aI1
aI0
aI00
aI0
aI00
aI1
aI1
aI1
aI01
aI1
aI1
aI01
aI1
aI01
aI0
aI0
aI0
aI00
aI0
aI1
aI00
aI0
aI1
aI1
aI1
aI0
aI0
aI0
aI1
aI0
aI1
aI1
aI0
aI1
aI1
aI1
aI1
aI01
aI1
aI0
aI1
aI0
aI00
aI01
aI1
aI1
aI0
aI01
aI01
aI00
asbag4
(g5
g6
Ntp569
Rp570
(dp571
g10
I9
sg11
I54
sg12
(dp572
g14
(F-0.6283185307179586
F0.6283185307179586
tp573
sg16
g17
sg18
(F-0.6283185307179586
F0.6283185307179586
tp574
sg20
(F0.0
F1.0471975511965976
tp575
sg22
g23
sg24
(F0.0
F1.0471975511965976
tp576
ssg26
F911.1422688282171
sg27
(lp577
I0
aI1
aI0
aI1
aI00
aI0
aI00
aI0
aI00
aI1
aI1
aI1
aI01
aI1
aI1
aI01
aI1
aI01
aI0
aI0
aI0
aI00
aI0
aI1
aI00
aI0
aI1
aI1
aI1
aI0
aI0
aI0
aI1
aI0
aI1
aI1
aI0
aI1
aI1
aI1
aI1
aI01
aI1
aI0
aI1
aI0
aI00
aI01
aI1
aI1
aI0
aI01
aI01
aI00
asbag4
(g5
g6
Ntp578
Rp579
(dp580
g10
I9
sg11
I54
sg12
(dp581
g14
(F-0.6283185307179586
F0.6283185307179586
tp582
sg16
g17
sg18
(F-0.6283185307179586
F0.6283185307179586
tp583
sg20
(F0.0
F1.0471975511965976
tp584
sg22
g23
sg24
(F0.0
F1.0471975511965976
tp585
ssg26
F628.6555089366741
sg27
(lp586
I0
aI1
aI0
aI1
aI1
aI0
aI00
aI0
aI00
aI1
aI1
aI1
aI01
aI1
aI1
aI01
aI1
aI01
aI0
aI0
aI0
aI00
aI0
aI1
aI00
aI0
aI1
aI1
aI1
aI0
aI0
aI0
aI1
aI0
aI1
aI1
aI0
aI1
aI1
aI1
aI1
aI01
aI1
aI0
aI1
aI0
aI00
aI01
aI1
aI1
aI0
aI01
aI01
aI00
asbag4
(g5
g6
Ntp587
Rp588
(dp589
g10
I9
sg11
I54
sg12
(dp590
g14
(F-0.6283185307179586
F0.6283185307179586
tp591
sg16
g17
sg18
(F-0.6283185307179586
F0.6283185307179586
tp592
sg20
(F0.0
F1.0471975511965976
tp593
sg22
g23
sg24
(F0.0
F1.0471975511965976
tp594
ssg26
F891.2770032908365
sg27
(lp595
I01
aI1
aI0
aI1
aI1
aI0
aI00
aI0
aI00
aI00
aI1
aI1
aI01
aI1
aI1
aI01
aI1
aI01
aI0
aI0
aI0
aI01
aI0
aI1
aI00
aI0
aI1
aI1
aI1
aI0
aI0
aI0
aI00
aI0
aI1
aI1
aI0
aI1
aI1
aI1
aI1
aI01
aI1
aI0
aI1
aI0
aI00
aI01
aI1
aI1
aI0
aI01
aI01
aI00
asbag4
(g5
g6
Ntp596
Rp597
(dp598
g10
I9
sg11
I54
sg12
(dp599
g14
(F-0.6283185307179586
F0.6283185307179586
tp600
sg16
g17
sg18
(F-0.6283185307179586
F0.6283185307179586
tp601
sg20
(F0.0
F1.0471975511965976
tp602
sg22
g23
sg24
(F0.0
F1.0471975511965976
tp603
ssg26
F628.6555089366741
sg27
(lp604
I0
aI1
aI0
aI1
aI1
aI0
aI00
aI0
aI00
aI1
aI1
aI1
aI01
aI1
aI1
aI01
aI1
aI01
aI0
aI0
aI0
aI00
aI0
aI1
aI00
aI0
aI1
aI1
aI1
aI0
aI0
aI0
aI1
aI0
aI1
aI1
aI0
aI1
aI1
aI1
aI1
aI01
aI1
aI0
aI1
aI0
aI00
aI01
aI1
aI1
aI0
aI01
aI01
aI00
asbag4
(g5
g6
Ntp605
Rp606
(dp607
g10
I9
sg11
I54
sg12
(dp608
g14
(F-0.6283185307179586
F0.6283185307179586
tp609
sg16
g17
sg18
(F-0.6283185307179586
F0.6283185307179586
tp610
sg20
(F0.0
F1.0471975511965976
tp611
sg22
g23
sg24
(F0.0
F1.0471975511965976
tp612
ssg26
F861.3152369448089
sg27
(lp613
I0
aI1
aI0
aI1
aI1
aI0
aI00
aI0
aI00
aI1
aI00
aI1
aI01
aI1
aI1
aI01
aI1
aI01
aI0
aI0
aI0
aI00
aI0
aI1
aI01
aI0
aI1
aI1
aI1
aI0
aI0
aI01
aI1
aI0
aI1
aI1
aI0
aI1
aI1
aI1
aI1
aI01
aI1
aI0
aI1
aI0
aI00
aI01
aI1
aI1
aI0
aI01
aI01
aI00
asbag4
(g5
g6
Ntp614
Rp615
(dp616
g10
I9
sg11
I54
sg12
(dp617
g14
(F-0.6283185307179586
F0.6283185307179586
tp618
sg16
g17
sg18
(F-0.6283185307179586
F0.6283185307179586
tp619
sg20
(F0.0
F1.0471975511965976
tp620
sg22
g23
sg24
(F0.0
F1.0471975511965976
tp621
ssg26
F795.4146858892384
sg27
(lp622
I0
aI1
aI0
aI1
aI1
aI0
aI00
aI0
aI00
aI1
aI1
aI1
aI01
aI1
aI1
aI01
aI1
aI01
aI0
aI0
aI0
aI00
aI0
aI1
aI00
aI0
aI1
aI1
aI1
aI0
aI0
aI0
aI1
aI0
aI1
aI1
aI0
aI1
aI1
aI1
aI1
aI01
aI1
aI0
aI1
aI0
aI00
aI00
aI1
aI1
aI0
aI01
aI01
aI00
asbag4
(g5
g6
Ntp623
Rp624
(dp625
g10
I9
sg11
I54
sg12
(dp626
g14
(F-0.6283185307179586
F0.6283185307179586
tp627
sg16
g17
sg18
(F-0.6283185307179586
F0.6283185307179586
tp628
sg20
(F0.0
F1.0471975511965976
tp629
sg22
g23
sg24
(F0.0
F1.0471975511965976
tp630
ssg26
F628.6555089366741
sg27
(lp631
I0
aI1
aI0
aI1
aI1
aI0
aI00
aI0
aI00
aI1
aI1
aI1
aI01
aI1
aI1
aI01
aI1
aI01
aI0
aI0
aI0
aI00
aI0
aI1
aI00
aI0
aI1
aI1
aI1
aI0
aI0
aI0
aI1
aI0
aI1
aI1
aI0
aI1
aI1
aI1
aI1
aI01
aI1
aI0
aI1
aI0
aI00
aI01
aI1
aI1
aI0
aI01
aI01
aI00
asbag4
(g5
g6
Ntp632
Rp633
(dp634
g10
I9
sg11
I54
sg12
(dp635
g14
(F-0.6283185307179586
F0.6283185307179586
tp636
sg16
g17
sg18
(F-0.6283185307179586
F0.6283185307179586
tp637
sg20
(F0.0
F1.0471975511965976
tp638
sg22
g23
sg24
(F0.0
F1.0471975511965976
tp639
ssg26
F706.1231080513035
sg27
(lp640
I0
aI1
aI0
aI1
aI1
aI0
aI00
aI0
aI00
aI1
aI1
aI1
aI01
aI1
aI1
aI01
aI1
aI01
aI0
aI0
aI0
aI00
aI0
aI1
aI00
aI0
aI1
aI1
aI1
aI0
aI0
aI0
aI1
aI0
aI1
aI00
aI0
aI1
aI1
aI1
aI1
aI01
aI1
aI0
aI1
aI0
aI00
aI01
aI1
aI1
aI0
aI01
aI00
aI01
asbag4
(g5
g6
Ntp641
Rp642
(dp643
g10
I9
sg11
I54
sg12
(dp644
g14
(F-0.6283185307179586
F0.6283185307179586
tp645
sg16
g17
sg18
(F-0.6283185307179586
F0.6283185307179586
tp646
sg20
(F0.0
F1.0471975511965976
tp647
sg22
g23
sg24
(F0.0
F1.0471975511965976
tp648
ssg26
F865.8097248536923
sg27
(lp649
I0
aI1
aI0
aI1
aI1
aI0
aI00
aI0
aI00
aI1
aI1
aI1
aI01
aI1
aI1
aI01
aI1
aI01
aI0
aI0
aI0
aI00
aI0
aI1
aI00
aI0
aI1
aI1
aI1
aI0
aI01
aI0
aI1
aI0
aI1
aI1
aI0
aI1
aI1
aI1
aI1
aI01
aI1
aI0
aI1
aI0
aI00
aI01
aI1
aI1
aI0
aI01
aI01
aI00
asbag4
(g5
g6
Ntp650
Rp651
(dp652
g10
I9
sg11
I54
sg12
(dp653
g14
(F-0.6283185307179586
F0.6283185307179586
tp654
sg16
g17
sg18
(F-0.6283185307179586
F0.6283185307179586
tp655
sg20
(F0.0
F1.0471975511965976
tp656
sg22
g23
sg24
(F0.0
F1.0471975511965976
tp657
ssg26
F628.6555089366741
sg27
(lp658
I0
aI1
aI0
aI1
aI1
aI0
aI00
aI0
aI00
aI1
aI1
aI1
aI01
aI1
aI1
aI01
aI1
aI01
aI0
aI0
aI0
aI00
aI0
aI1
aI00
aI0
aI1
aI1
aI1
aI0
aI0
aI0
aI1
aI0
aI1
aI1
aI0
aI1
aI1
aI1
aI1
aI01
aI1
aI0
aI1
aI0
aI00
aI01
aI1
aI1
aI0
aI01
aI01
aI00
asbag4
(g5
g6
Ntp659
Rp660
(dp661
g10
I9
sg11
I54
sg12
(dp662
g14
(F-0.6283185307179586
F0.6283185307179586
tp663
sg16
g17
sg18
(F-0.6283185307179586
F0.6283185307179586
tp664
sg20
(F0.0
F1.0471975511965976
tp665
sg22
g23
sg24
(F0.0
F1.0471975511965976
tp666
ssg26
F1031.9937702762734
sg27
(lp667
I0
aI00
aI0
aI1
aI1
aI01
aI00
aI0
aI00
aI1
aI1
aI1
aI01
aI1
aI1
aI01
aI1
aI01
aI0
aI0
aI0
aI00
aI0
aI1
aI00
aI0
aI1
aI1
aI1
aI0
aI0
aI0
aI1
aI0
aI1
aI1
aI0
aI1
aI1
aI1
aI1
aI01
aI1
aI0
aI1
aI0
aI00
aI01
aI1
aI1
aI0
aI01
aI01
aI00
asbag4
(g5
g6
Ntp668
Rp669
(dp670
g10
I9
sg11
I54
sg12
(dp671
g14
(F-0.6283185307179586
F0.6283185307179586
tp672
sg16
g17
sg18
(F-0.6283185307179586
F0.6283185307179586
tp673
sg20
(F0.0
F1.0471975511965976
tp674
sg22
g23
sg24
(F0.0
F1.0471975511965976
tp675
ssg26
F1094.5652631831567
sg27
(lp676
I0
aI1
aI0
aI1
aI1
aI0
aI00
aI0
aI00
aI1
aI1
aI1
aI01
aI1
aI1
aI01
aI1
aI01
aI0
aI0
aI0
aI00
aI0
aI1
aI01
aI0
aI1
aI00
aI1
aI0
aI0
aI0
aI1
aI0
aI1
aI1
aI0
aI1
aI1
aI1
aI1
aI00
aI1
aI0
aI1
aI0
aI00
aI01
aI1
aI1
aI0
aI01
aI01
aI00
asbag4
(g5
g6
Ntp677
Rp678
(dp679
g10
I9
sg11
I54
sg12
(dp680
g14
(F-0.6283185307179586
F0.6283185307179586
tp681
sg16
g17
sg18
(F-0.6283185307179586
F0.6283185307179586
tp682
sg20
(F0.0
F1.0471975511965976
tp683
sg22
g23
sg24
(F0.0
F1.0471975511965976
tp684
ssg26
F698.7683944374025
sg27
(lp685
I0
aI1
aI0
aI1
aI1
aI0
aI00
aI0
aI00
aI1
aI1
aI1
aI01
aI1
aI1
aI01
aI1
aI01
aI0
aI0
aI0
aI00
aI0
aI1
aI00
aI0
aI1
aI1
aI1
aI0
aI0
aI0
aI1
aI0
aI1
aI1
aI0
aI1
aI1
aI1
aI1
aI01
aI1
aI0
aI1
aI0
aI00
aI01
aI1
aI1
aI0
aI00
aI01
aI00
asbag4
(g5
g6
Ntp686
Rp687
(dp688
g10
I9
sg11
I54
sg12
(dp689
g14
(F-0.6283185307179586
F0.6283185307179586
tp690
sg16
g17
sg18
(F-0.6283185307179586
F0.6283185307179586
tp691
sg20
(F0.0
F1.0471975511965976
tp692
sg22
g23
sg24
(F0.0
F1.0471975511965976
tp693
ssg26
F898.2679132589362
sg27
(lp694
I0
aI1
aI0
aI1
aI1
aI0
aI00
aI0
aI00
aI1
aI1
aI1
aI01
aI1
aI1
aI01
aI1
aI01
aI0
aI0
aI0
aI01
aI0
aI1
aI00
aI0
aI1
aI1
aI1
aI0
aI0
aI0
aI1
aI0
aI1
aI1
aI0
aI1
aI1
aI1
aI1
aI01
aI1
aI0
aI1
aI0
aI00
aI01
aI1
aI1
aI0
aI01
aI01
aI00
asbag4
(g5
g6
Ntp695
Rp696
(dp697
g10
I9
sg11
I54
sg12
(dp698
g14
(F-0.6283185307179586
F0.6283185307179586
tp699
sg16
g17
sg18
(F-0.6283185307179586
F0.6283185307179586
tp700
sg20
(F0.0
F1.0471975511965976
tp701
sg22
g23
sg24
(F0.0
F1.0471975511965976
tp702
ssg26
F638.2698828306585
sg27
(lp703
I0
aI1
aI0
aI1
aI1
aI0
aI00
aI0
aI00
aI1
aI1
aI1
aI01
aI1
aI1
aI01
aI1
aI01
aI0
aI0
aI0
aI00
aI0
aI1
aI00
aI0
aI1
aI1
aI1
aI0
aI0
aI0
aI1
aI0
aI1
aI1
aI0
aI1
aI1
aI1
aI1
aI01
aI00
aI0
aI1
aI0
aI00
aI01
aI1
aI1
aI0
aI01
aI01
aI00
asbag4
(g5
g6
Ntp704
Rp705
(dp706
g10
I9
sg11
I54
sg12
(dp707
g14
(F-0.6283185307179586
F0.6283185307179586
tp708
sg16
g17
sg18
(F-0.6283185307179586
F0.6283185307179586
tp709
sg20
(F0.0
F1.0471975511965976
tp710
sg22
g23
sg24
(F0.0
F1.0471975511965976
tp711
ssg26
F628.6555089366741
sg27
(lp712
I0
aI1
aI0
aI1
aI1
aI0
aI00
aI0
aI00
aI1
aI1
aI1
aI01
aI1
aI1
aI01
aI1
aI01
aI0
aI0
aI0
aI00
aI0
aI1
aI00
aI0
aI1
aI1
aI1
aI0
aI0
aI0
aI1
aI0
aI1
aI1
aI0
aI1
aI1
aI1
aI1
aI01
aI1
aI0
aI1
aI0
aI00
aI01
aI1
aI1
aI0
aI01
aI01
aI00
asbag4
(g5
g6
Ntp713
Rp714
(dp715
g10
I9
sg11
I54
sg12
(dp716
g14
(F-0.6283185307179586
F0.6283185307179586
tp717
sg16
g17
sg18
(F-0.6283185307179586
F0.6283185307179586
tp718
sg20
(F0.0
F1.0471975511965976
tp719
sg22
g23
sg24
(F0.0
F1.0471975511965976
tp720
ssg26
F692.5829494496768
sg27
(lp721
I0
aI1
aI0
aI1
aI1
aI0
aI00
aI0
aI00
aI1
aI1
aI1
aI01
aI1
aI1
aI01
aI1
aI01
aI0
aI0
aI0
aI00
aI0
aI1
aI00
aI0
aI1
aI1
aI1
aI0
aI0
aI0
aI1
aI0
aI1
aI00
aI0
aI1
aI1
aI1
aI1
aI01
aI1
aI0
aI1
aI0
aI00
aI01
aI1
aI1
aI0
aI01
aI01
aI00
asbag4
(g5
g6
Ntp722
Rp723
(dp724
g10
I9
sg11
I54
sg12
(dp725
g14
(F-0.6283185307179586
F0.6283185307179586
tp726
sg16
g17
sg18
(F-0.6283185307179586
F0.6283185307179586
tp727
sg20
(F0.0
F1.0471975511965976
tp728
sg22
g23
sg24
(F0.0
F1.0471975511965976
tp729
ssg26
F698.513539474684
sg27
(lp730
I0
aI1
aI0
aI1
aI1
aI0
aI00
aI0
aI00
aI1
aI1
aI1
aI01
aI1
aI1
aI01
aI1
aI01
aI0
aI0
aI0
aI00
aI0
aI1
aI00
aI0
aI1
aI1
aI1
aI0
aI0
aI0
aI1
aI0
aI00
aI1
aI0
aI1
aI1
aI1
aI1
aI01
aI1
aI0
aI1
aI0
aI00
aI01
aI1
aI1
aI0
aI01
aI01
aI00
asbag4
(g5
g6
Ntp731
Rp732
(dp733
g10
I9
sg11
I54
sg12
(dp734
g14
(F-0.6283185307179586
F0.6283185307179586
tp735
sg16
g17
sg18
(F-0.6283185307179586
F0.6283185307179586
tp736
sg20
(F0.0
F1.0471975511965976
tp737
sg22
g23
sg24
(F0.0
F1.0471975511965976
tp738
ssg26
F628.6555089366741
sg27
(lp739
I0
aI1
aI0
aI1
aI1
aI0
aI00
aI0
aI00
aI1
aI1
aI1
aI01
aI1
aI1
aI01
aI1
aI01
aI0
aI0
aI0
aI00
aI0
aI1
aI00
aI0
aI1
aI1
aI1
aI0
aI0
aI0
aI1
aI0
aI1
aI1
aI0
aI1
aI1
aI1
aI1
aI01
aI1
aI0
aI1
aI0
aI00
aI01
aI1
aI1
aI0
aI01
aI01
aI00
asbag4
(g5
g6
Ntp740
Rp741
(dp742
g10
I9
sg11
I54
sg12
(dp743
g14
(F-0.6283185307179586
F0.6283185307179586
tp744
sg16
g17
sg18
(F-0.6283185307179586
F0.6283185307179586
tp745
sg20
(F0.0
F1.0471975511965976
tp746
sg22
g23
sg24
(F0.0
F1.0471975511965976
tp747
ssg26
F1042.3185176873385
sg27
(lp748
I01
aI1
aI0
aI1
aI1
aI0
aI00
aI0
aI00
aI1
aI1
aI1
aI01
aI1
aI1
aI01
aI1
aI01
aI0
aI0
aI0
aI00
aI0
aI1
aI00
aI0
aI1
aI1
aI1
aI0
aI0
aI0
aI1
aI0
aI1
aI1
aI0
aI1
aI1
aI1
aI1
aI01
aI1
aI0
aI1
aI0
aI00
aI01
aI1
aI1
aI0
aI01
aI01
aI00
asbag4
(g5
g6
Ntp749
Rp750
(dp751
g10
I9
sg11
I54
sg12
(dp752
g14
(F-0.6283185307179586
F0.6283185307179586
tp753
sg16
g17
sg18
(F-0.6283185307179586
F0.6283185307179586
tp754
sg20
(F0.0
F1.0471975511965976
tp755
sg22
g23
sg24
(F0.0
F1.0471975511965976
tp756
ssg26
F628.6555089366741
sg27
(lp757
I0
aI1
aI0
aI1
aI1
aI0
aI00
aI0
aI00
aI1
aI1
aI1
aI01
aI1
aI1
aI01
aI1
aI01
aI0
aI0
aI0
aI00
aI0
aI1
aI00
aI0
aI1
aI1
aI1
aI0
aI0
aI0
aI1
aI0
aI1
aI1
aI0
aI1
aI1
aI1
aI1
aI01
aI1
aI0
aI1
aI0
aI00
aI01
aI1
aI1
aI0
aI01
aI01
aI00
asbag4
(g5
g6
Ntp758
Rp759
(dp760
g10
I9
sg11
I54
sg12
(dp761
g14
(F-0.6283185307179586
F0.6283185307179586
tp762
sg16
g17
sg18
(F-0.6283185307179586
F0.6283185307179586
tp763
sg20
(F0.0
F1.0471975511965976
tp764
sg22
g23
sg24
(F0.0
F1.0471975511965976
tp765
ssg26
F664.8337504815761
sg27
(lp766
I0
aI1
aI0
aI1
aI1
aI0
aI00
aI0
aI00
aI1
aI1
aI1
aI01
aI1
aI1
aI01
aI1
aI01
aI0
aI0
aI0
aI00
aI0
aI1
aI00
aI0
aI1
aI1
aI1
aI0
aI0
aI0
aI1
aI01
aI1
aI1
aI0
aI1
aI1
aI1
aI1
aI01
aI1
aI0
aI1
aI0
aI00
aI01
aI1
aI1
aI0
aI01
aI01
aI00
asbag4
(g5
g6
Ntp767
Rp768
(dp769
g10
I9
sg11
I54
sg12
(dp770
g14
(F-0.6283185307179586
F0.6283185307179586
tp771
sg16
g17
sg18
(F-0.6283185307179586
F0.6283185307179586
tp772
sg20
(F0.0
F1.0471975511965976
tp773
sg22
g23
sg24
(F0.0
F1.0471975511965976
tp774
ssg26
F647.2267490100955
sg27
(lp775
I0
aI1
aI0
aI1
aI1
aI0
aI00
aI01
aI00
aI1
aI1
aI1
aI01
aI1
aI1
aI01
aI1
aI01
aI0
aI0
aI0
aI00
aI0
aI1
aI00
aI0
aI1
aI1
aI1
aI0
aI0
aI0
aI1
aI0
aI1
aI1
aI0
aI1
aI1
aI1
aI1
aI01
aI1
aI0
aI1
aI0
aI00
aI01
aI1
aI1
aI0
aI01
aI01
aI00
asbag4
(g5
g6
Ntp776
Rp777
(dp778
g10
I9
sg11
I54
sg12
(dp779
g14
(F-0.6283185307179586
F0.6283185307179586
tp780
sg16
g17
sg18
(F-0.6283185307179586
F0.6283185307179586
tp781
sg20
(F0.0
F1.0471975511965976
tp782
sg22
g23
sg24
(F0.0
F1.0471975511965976
tp783
ssg26
F1030.2730788423446
sg27
(lp784
I0
aI1
aI0
aI1
aI1
aI0
aI00
aI0
aI00
aI1
aI1
aI1
aI01
aI1
aI1
aI01
aI1
aI01
aI01
aI0
aI0
aI00
aI0
aI1
aI00
aI0
aI1
aI1
aI1
aI0
aI0
aI0
aI1
aI0
aI1
aI1
aI0
aI1
aI1
aI1
aI1
aI01
aI1
aI0
aI1
aI0
aI00
aI01
aI1
aI1
aI0
aI01
aI01
aI00
asbag4
(g5
g6
Ntp785
Rp786
(dp787
g10
I9
sg11
I54
sg12
(dp788
g14
(F-0.6283185307179586
F0.6283185307179586
tp789
sg16
g17
sg18
(F-0.6283185307179586
F0.6283185307179586
tp790
sg20
(F0.0
F1.0471975511965976
tp791
sg22
g23
sg24
(F0.0
F1.0471975511965976
tp792
ssg26
F628.6555089366741
sg27
(lp793
I0
aI1
aI0
aI1
aI1
aI0
aI00
aI0
aI00
aI1
aI1
aI1
aI01
aI1
aI1
aI01
aI1
aI01
aI0
aI0
aI0
aI00
aI0
aI1
aI00
aI0
aI1
aI1
aI1
aI0
aI0
aI0
aI1
aI0
aI1
aI1
aI0
aI1
aI1
aI1
aI1
aI01
aI1
aI0
aI1
aI0
aI00
aI01
aI1
aI1
aI0
aI01
aI01
aI00
asbag4
(g5
g6
Ntp794
Rp795
(dp796
g10
I9
sg11
I54
sg12
(dp797
g14
(F-0.6283185307179586
F0.6283185307179586
tp798
sg16
g17
sg18
(F-0.6283185307179586
F0.6283185307179586
tp799
sg20
(F0.0
F1.0471975511965976
tp800
sg22
g23
sg24
(F0.0
F1.0471975511965976
tp801
ssg26
F628.6555089366741
sg27
(lp802
I0
aI1
aI0
aI1
aI1
aI0
aI00
aI0
aI00
aI1
aI1
aI1
aI01
aI1
aI1
aI01
aI1
aI01
aI0
aI0
aI0
aI00
aI0
aI1
aI00
aI0
aI1
aI1
aI1
aI0
aI0
aI0
aI1
aI0
aI1
aI1
aI0
aI1
aI1
aI1
aI1
aI01
aI1
aI0
aI1
aI0
aI00
aI01
aI1
aI1
aI0
aI01
aI01
aI00
asbag4
(g5
g6
Ntp803
Rp804
(dp805
g10
I9
sg11
I54
sg12
(dp806
g14
(F-0.6283185307179586
F0.6283185307179586
tp807
sg16
g17
sg18
(F-0.6283185307179586
F0.6283185307179586
tp808
sg20
(F0.0
F1.0471975511965976
tp809
sg22
g23
sg24
(F0.0
F1.0471975511965976
tp810
ssg26
F628.6555089366741
sg27
(lp811
I0
aI1
aI0
aI1
aI1
aI0
aI00
aI0
aI00
aI1
aI1
aI1
aI01
aI1
aI1
aI01
aI1
aI01
aI0
aI0
aI0
aI00
aI0
aI1
aI00
aI0
aI1
aI1
aI1
aI0
aI0
aI0
aI1
aI0
aI1
aI1
aI0
aI1
aI1
aI1
aI1
aI01
aI1
aI0
aI1
aI0
aI00
aI01
aI1
aI1
aI0
aI01
aI01
aI00
asbag4
(g5
g6
Ntp812
Rp813
(dp814
g10
I9
sg11
I54
sg12
(dp815
g14
(F-0.6283185307179586
F0.6283185307179586
tp816
sg16
g17
sg18
(F-0.6283185307179586
F0.6283185307179586
tp817
sg20
(F0.0
F1.0471975511965976
tp818
sg22
g23
sg24
(F0.0
F1.0471975511965976
tp819
ssg26
F1104.587554452482
sg27
(lp820
I0
aI1
aI0
aI1
aI00
aI0
aI00
aI0
aI00
aI1
aI1
aI1
aI01
aI1
aI1
aI01
aI1
aI01
aI0
aI0
aI0
aI00
aI0
aI1
aI00
aI0
aI1
aI00
aI1
aI0
aI0
aI0
aI1
aI0
aI1
aI1
aI0
aI1
aI1
aI1
aI1
aI01
aI1
aI0
aI1
aI0
aI00
aI01
aI1
aI1
aI0
aI01
aI01
aI00
asbag4
(g5
g6
Ntp821
Rp822
(dp823
g10
I9
sg11
I54
sg12
(dp824
g14
(F-0.6283185307179586
F0.6283185307179586
tp825
sg16
g17
sg18
(F-0.6283185307179586
F0.6283185307179586
tp826
sg20
(F0.0
F1.0471975511965976
tp827
sg22
g23
sg24
(F0.0
F1.0471975511965976
tp828
ssg26
F644.4666214705885
sg27
(lp829
I0
aI1
aI0
aI1
aI1
aI0
aI00
aI0
aI00
aI1
aI1
aI1
aI01
aI1
aI1
aI01
aI1
aI01
aI0
aI0
aI0
aI00
aI0
aI1
aI00
aI0
aI1
aI1
aI1
aI0
aI0
aI0
aI1
aI0
aI1
aI1
aI0
aI1
aI1
aI1
aI1
aI00
aI1
aI0
aI1
aI0
aI00
aI01
aI1
aI1
aI0
aI01
aI01
aI00
asbag4
(g5
g6
Ntp830
Rp831
(dp832
g10
I9
sg11
I54
sg12
(dp833
g14
(F-0.6283185307179586
F0.6283185307179586
tp834
sg16
g17
sg18
(F-0.6283185307179586
F0.6283185307179586
tp835
sg20
(F0.0
F1.0471975511965976
tp836
sg22
g23
sg24
(F0.0
F1.0471975511965976
tp837
ssg26
F1112.4887490943115
sg27
(lp838
I0
aI1
aI0
aI1
aI1
aI0
aI00
aI0
aI00
aI1
aI1
aI1
aI01
aI1
aI1
aI01
aI1
aI01
aI0
aI0
aI0
aI00
aI0
aI1
aI00
aI0
aI1
aI1
aI00
aI0
aI0
aI0
aI1
aI0
aI1
aI1
aI0
aI1
aI1
aI1
aI1
aI01
aI1
aI0
aI1
aI0
aI00
aI01
aI1
aI1
aI0
aI01
aI01
aI00
asbag4
(g5
g6
Ntp839
Rp840
(dp841
g10
I9
sg11
I54
sg12
(dp842
g14
(F-0.6283185307179586
F0.6283185307179586
tp843
sg16
g17
sg18
(F-0.6283185307179586
F0.6283185307179586
tp844
sg20
(F0.0
F1.0471975511965976
tp845
sg22
g23
sg24
(F0.0
F1.0471975511965976
tp846
ssg26
F628.6555089366741
sg27
(lp847
I0
aI1
aI0
aI1
aI1
aI0
aI00
aI0
aI00
aI1
aI1
aI1
aI01
aI1
aI1
aI01
aI1
aI01
aI0
aI0
aI0
aI00
aI0
aI1
aI00
aI0
aI1
aI1
aI1
aI0
aI0
aI0
aI1
aI0
aI1
aI1
aI0
aI1
aI1
aI1
aI1
aI01
aI1
aI0
aI1
aI0
aI00
aI01
aI1
aI1
aI0
aI01
aI01
aI00
asbag4
(g5
g6
Ntp848
Rp849
(dp850
g10
I9
sg11
I54
sg12
(dp851
g14
(F-0.6283185307179586
F0.6283185307179586
tp852
sg16
g17
sg18
(F-0.6283185307179586
F0.6283185307179586
tp853
sg20
(F0.0
F1.0471975511965976
tp854
sg22
g23
sg24
(F0.0
F1.0471975511965976
tp855
ssg26
F997.4976505468253
sg27
(lp856
I0
aI1
aI0
aI00
aI1
aI0
aI00
aI0
aI00
aI1
aI1
aI1
aI01
aI1
aI1
aI01
aI1
aI01
aI0
aI01
aI0
aI00
aI0
aI1
aI00
aI0
aI1
aI1
aI1
aI0
aI0
aI0
aI1
aI01
aI1
aI1
aI01
aI1
aI1
aI1
aI1
aI01
aI1
aI0
aI1
aI0
aI01
aI01
aI1
aI1
aI0
aI01
aI00
aI00
asbag4
(g5
g6
Ntp857
Rp858
(dp859
g10
I9
sg11
I54
sg12
(dp860
g14
(F-0.6283185307179586
F0.6283185307179586
tp861
sg16
g17
sg18
(F-0.6283185307179586
F0.6283185307179586
tp862
sg20
(F0.0
F1.0471975511965976
tp863
sg22
g23
sg24
(F0.0
F1.0471975511965976
tp864
ssg26
F686.2986159995748
sg27
(lp865
I0
aI1
aI0
aI1
aI1
aI0
aI00
aI0
aI00
aI1
aI1
aI1
aI01
aI1
aI1
aI01
aI1
aI01
aI0
aI0
aI0
aI00
aI01
aI1
aI00
aI0
aI1
aI1
aI1
aI0
aI0
aI0
aI1
aI0
aI1
aI1
aI0
aI1
aI1
aI1
aI1
aI01
aI1
aI0
aI1
aI0
aI00
aI01
aI1
aI1
aI0
aI01
aI01
aI00
asbag4
(g5
g6
Ntp866
Rp867
(dp868
g10
I9
sg11
I54
sg12
(dp869
g14
(F-0.6283185307179586
F0.6283185307179586
tp870
sg16
g17
sg18
(F-0.6283185307179586
F0.6283185307179586
tp871
sg20
(F0.0
F1.0471975511965976
tp872
sg22
g23
sg24
(F0.0
F1.0471975511965976
tp873
ssg26
F628.6555089366741
sg27
(lp874
I0
aI1
aI0
aI1
aI1
aI0
aI00
aI0
aI00
aI1
aI1
aI1
aI01
aI1
aI1
aI01
aI1
aI01
aI0
aI0
aI0
aI00
aI0
aI1
aI00
aI0
aI1
aI1
aI1
aI0
aI0
aI0
aI1
aI0
aI1
aI1
aI0
aI1
aI1
aI1
aI1
aI01
aI1
aI0
aI1
aI0
aI00
aI01
aI1
aI1
aI0
aI01
aI01
aI00
asbag4
(g5
g6
Ntp875
Rp876
(dp877
g10
I9
sg11
I54
sg12
(dp878
g14
(F-0.6283185307179586
F0.6283185307179586
tp879
sg16
g17
sg18
(F-0.6283185307179586
F0.6283185307179586
tp880
sg20
(F0.0
F1.0471975511965976
tp881
sg22
g23
sg24
(F0.0
F1.0471975511965976
tp882
ssg26
F887.3214277582424
sg27
(lp883
I0
aI1
aI0
aI1
aI1
aI0
aI00
aI0
aI00
aI1
aI1
aI1
aI01
aI1
aI1
aI01
aI1
aI01
aI0
aI0
aI0
aI00
aI0
aI1
aI00
aI0
aI1
aI1
aI1
aI0
aI0
aI0
aI1
aI0
aI1
aI1
aI0
aI1
aI1
aI00
aI1
aI01
aI1
aI0
aI1
aI0
aI00
aI01
aI1
aI1
aI0
aI01
aI01
aI00
asbag4
(g5
g6
Ntp884
Rp885
(dp886
g10
I9
sg11
I54
sg12
(dp887
g14
(F-0.6283185307179586
F0.6283185307179586
tp888
sg16
g17
sg18
(F-0.6283185307179586
F0.6283185307179586
tp889
sg20
(F0.0
F1.0471975511965976
tp890
sg22
g23
sg24
(F0.0
F1.0471975511965976
tp891
ssg26
F868.5118234544941
sg27
(lp892
I01
aI1
aI0
aI1
aI1
aI0
aI00
aI0
aI00
aI1
aI1
aI1
aI01
aI1
aI1
aI01
aI1
aI01
aI0
aI0
aI01
aI00
aI0
aI1
aI00
aI0
aI1
aI1
aI1
aI0
aI0
aI0
aI1
aI0
aI1
aI1
aI0
aI1
aI1
aI1
aI1
aI01
aI1
aI0
aI1
aI0
aI00
aI01
aI1
aI1
aI0
aI01
aI01
aI00
asbag4
(g5
g6
Ntp893
Rp894
(dp895
g10
I9
sg11
I54
sg12
(dp896
g14
(F-0.6283185307179586
F0.6283185307179586
tp897
sg16
g17
sg18
(F-0.6283185307179586
F0.6283185307179586
tp898
sg20
(F0.0
F1.0471975511965976
tp899
sg22
g23
sg24
(F0.0
F1.0471975511965976
tp900
ssg26
F688.0540424141487
sg27
(lp901
I0
aI1
aI0
aI1
aI1
aI0
aI00
aI0
aI00
aI1
aI1
aI1
aI01
aI1
aI1
aI01
aI1
aI01
aI0
aI0
aI0
aI00
aI0
aI1
aI01
aI0
aI1
aI1
aI1
aI0
aI0
aI0
aI1
aI0
aI1
aI1
aI0
aI1
aI1
aI1
aI1
aI01
aI1
aI0
aI1
aI0
aI00
aI01
aI1
aI1
aI0
aI01
aI01
aI00
asbag4
(g5
g6
Ntp902
Rp903
(dp904
g10
I9
sg11
I54
sg12
(dp905
g14
(F-0.6283185307179586
F0.6283185307179586
tp906
sg16
g17
sg18
(F-0.6283185307179586
F0.6283185307179586
tp907
sg20
(F0.0
F1.0471975511965976
tp908
sg22
g23
sg24
(F0.0
F1.0471975511965976
tp909
ssg26
F628.6555089366741
sg27
(lp910
I0
aI1
aI0
aI1
aI1
aI0
aI00
aI0
aI00
aI1
aI1
aI1
aI01
aI1
aI1
aI01
aI1
aI01
aI0
aI0
aI0
aI00
aI0
aI1
aI00
aI0
aI1
aI1
aI1
aI0
aI0
aI0
aI1
aI0
aI1
aI1
aI0
aI1
aI1
aI1
aI1
aI01
aI1
aI0
aI1
aI0
aI00
aI01
aI1
aI1
aI0
aI01
aI01
aI00
asbag4
(g5
g6
Ntp911
Rp912
(dp913
g10
I9
sg11
I54
sg12
(dp914
g14
(F-0.6283185307179586
F0.6283185307179586
tp915
sg16
g17
sg18
(F-0.6283185307179586
F0.6283185307179586
tp916
sg20
(F0.0
F1.0471975511965976
tp917
sg22
g23
sg24
(F0.0
F1.0471975511965976
tp918
ssg26
F930.0161028454909
sg27
(lp919
I0
aI1
aI01
aI1
aI1
aI0
aI00
aI0
aI00
aI1
aI1
aI1
aI01
aI1
aI00
aI01
aI1
aI01
aI0
aI0
aI0
aI00
aI0
aI1
aI00
aI0
aI1
aI1
aI00
aI01
aI0
aI0
aI1
aI0
aI1
aI1
aI0
aI1
aI1
aI1
aI1
aI01
aI1
aI0
aI1
aI0
aI00
aI01
aI1
aI1
aI01
aI01
aI01
aI00
asbas.